; Function Attrs: nounwind uwtable
define dso_local noundef ptr @decNumberReduce(ptr noundef returned %0, ptr noundef captures(address) %1, ptr noundef %2) local_unnamed_addr #4 {
  %4 = alloca i32, align 4
  %5 = alloca i32, align 4
  %6 = alloca i32, align 4
  call void @llvm.lifetime.start.p0(i64 4, ptr nonnull %4) #18
  store i32 0, ptr %4, align 4, !tbaa !16
  call void @llvm.lifetime.start.p0(i64 4, ptr nonnull %5) #18
  store i32 0, ptr %5, align 4, !tbaa !16
  call void @llvm.lifetime.start.p0(i64 4, ptr nonnull %6) #18
  %7 = getelementptr inbounds nuw i8, ptr %1, i64 8
  %8 = load i8, ptr %7, align 4, !tbaa !4
  %9 = and i8 %8, 48
  %.not = icmp eq i8 %9, 0
  br i1 %.not, label %12, label %10

10:                                               ; preds = %3
  %11 = call fastcc ptr @decNaNs(ptr noundef %0, ptr noundef nonnull %1, ptr noundef null, ptr noundef %2, ptr noundef %4)
  br label %20

12:                                               ; preds = %3
  %13 = getelementptr inbounds nuw i8, ptr %0, i64 8
  store i8 %8, ptr %13, align 4, !tbaa !4
  %14 = getelementptr inbounds nuw i8, ptr %1, i64 4
  %15 = load i32, ptr %14, align 4, !tbaa !9
  %16 = getelementptr inbounds nuw i8, ptr %0, i64 4
  store i32 %15, ptr %16, align 4, !tbaa !9
  %17 = getelementptr inbounds nuw i8, ptr %1, i64 10
  %18 = load i32, ptr %1, align 4, !tbaa !10
  call fastcc void @decSetCoeff(ptr noundef %0, ptr noundef readonly %2, ptr noundef nonnull %17, i32 noundef %18, ptr noundef nonnull %5, ptr noundef nonnull %4)
  call fastcc void @decFinalize(ptr noundef %0, ptr noundef %2, ptr noundef %5, ptr noundef %4)
  %19 = call fastcc ptr @decTrim(ptr noundef %0, ptr noundef %2, i8 noundef zeroext 1, i8 noundef zeroext 0, ptr noundef %6)
  br label %20

20:                                               ; preds = %12, %10
  %21 = load i32, ptr %4, align 4, !tbaa !16
  %.not14 = icmp eq i32 %21, 0
  br i1 %.not14, label %33, label %22

22:                                               ; preds = %20
  %23 = and i32 %21, 221
  %.not.i = icmp eq i32 %23, 0
  br i1 %.not.i, label %decStatus.exit, label %24

24:                                               ; preds = %22
  %25 = and i32 %21, 1073741824
  %.not6.i = icmp eq i32 %25, 0
  br i1 %.not6.i, label %28, label %26

26:                                               ; preds = %24
  %27 = and i32 %21, -1073741825
  br label %decStatus.exit

28:                                               ; preds = %24
  %29 = getelementptr inbounds nuw i8, ptr %0, i64 8
  %30 = getelementptr inbounds nuw i8, ptr %0, i64 4
  store i32 0, ptr %30, align 4, !tbaa !9
  store i32 1, ptr %0, align 4, !tbaa !10
  %31 = getelementptr inbounds nuw i8, ptr %0, i64 10
  store i16 0, ptr %31, align 2, !tbaa !11
  store i8 32, ptr %29, align 4, !tbaa !4
  br label %decStatus.exit

decStatus.exit:                                   ; preds = %22, %26, %28
  %.0.i = phi i32 [ %27, %26 ], [ %21, %28 ], [ %21, %22 ]
  %32 = tail call ptr @decContextSetStatus(ptr noundef %2, i32 noundef %.0.i) #18
  br label %33

33:                                               ; preds = %decStatus.exit, %20
  call void @llvm.lifetime.end.p0(i64 4, ptr nonnull %6) #18
  call void @llvm.lifetime.end.p0(i64 4, ptr nonnull %5) #18
  call void @llvm.lifetime.end.p0(i64 4, ptr nonnull %4) #18
  ret ptr %0
}